; Function Attrs: nounwind uwtable
define hidden void @Curl_wildcard_dtor(ptr noundef captures(none) %0) local_unnamed_addr #0 {
  %2 = load ptr, ptr %0, align 8, !tbaa !13
  %.not = icmp eq ptr %2, null
  br i1 %.not, label %18, label %3

3:                                                ; preds = %1
  %4 = getelementptr inbounds nuw i8, ptr %2, i64 56
  %5 = load ptr, ptr %4, align 8, !tbaa !15
  %.not16 = icmp eq ptr %5, null
  br i1 %.not16, label %9, label %6

6:                                                ; preds = %3
  %7 = getelementptr inbounds nuw i8, ptr %2, i64 48
  %8 = load ptr, ptr %7, align 8, !tbaa !16
  tail call void %5(ptr noundef %8) #8
  tail call void @llvm.memset.p0.i64(ptr noundef nonnull align 8 dereferenceable(16) %7, i8 0, i64 16, i1 false)
  br label %9

9:                                                ; preds = %3, %6
  %10 = getelementptr inbounds nuw i8, ptr %2, i64 16
  tail call void @Curl_llist_destroy(ptr noundef nonnull %10, ptr noundef null) #8
  %11 = load ptr, ptr @Curl_cfree, align 8, !tbaa !17
  %12 = load ptr, ptr %2, align 8, !tbaa !18
  tail call void %11(ptr noundef %12) #8
  store ptr null, ptr %2, align 8, !tbaa !18
  %13 = load ptr, ptr @Curl_cfree, align 8, !tbaa !17
  %14 = getelementptr inbounds nuw i8, ptr %2, i64 8
  %15 = load ptr, ptr %14, align 8, !tbaa !19
  tail call void %13(ptr noundef %15) #8
  store ptr null, ptr %14, align 8, !tbaa !19
  %16 = getelementptr inbounds nuw i8, ptr %2, i64 64
  store i8 1, ptr %16, align 8, !tbaa !3
  %17 = load ptr, ptr @Curl_cfree, align 8, !tbaa !17
  tail call void %17(ptr noundef nonnull %2) #8
  store ptr null, ptr %0, align 8, !tbaa !13
  br label %18

18:                                               ; preds = %1, %9
  ret void
}